; Function Attrs: mustprogress nofree norecurse nosync nounwind willreturn memory(read, inaccessiblemem: none) uwtable
define internal range(i32 0, 52) i32 @j2k_probe(ptr noundef readonly captures(none) %0) #8 {
  %2 = getelementptr inbounds nuw i8, ptr %0, i64 8
  %3 = load ptr, ptr %2, align 8, !tbaa !90
  %4 = load i64, ptr %3, align 1
  %5 = icmp eq i64 %4, 2314938624866516992
  %6 = and i64 %4, 4294967295
  %7 = icmp eq i64 %6, 1375686655
  %8 = or i1 %5, %7
  %.0 = select i1 %8, i32 51, i32 0
  ret i32 %.0
}